; Function Attrs: noreturn nounwind uwtable
define hidden void @zend_exception_uncaught_error(ptr noundef %0, ...) local_unnamed_addr #10 {
  %2 = alloca [1 x %struct.__va_list_tag], align 16
  %3 = alloca %struct._zval_struct, align 8
  call void @llvm.va_start(ptr nonnull %2)
  %4 = call ptr @zend_vstrpprintf(i64 noundef 0, ptr noundef %0, ptr noundef nonnull %2) #15
  call void @llvm.va_end(ptr nonnull %2)
  %5 = load ptr, ptr getelementptr inbounds (%struct._zend_executor_globals, ptr @executor_globals, i64 0, i32 50), align 8, !nonnull !4, !noundef !4
  %6 = load i32, ptr %5, align 4
  %7 = add i32 %6, 1
  store i32 %7, ptr %5, align 4
  store ptr %5, ptr %3, align 8
  %8 = getelementptr inbounds i8, ptr %3, i64 8
  store i32 776, ptr %8, align 8
  call void @zend_clear_exception()
  %9 = call ptr @zval_get_string_func(ptr noundef nonnull %3) #15
  %10 = getelementptr inbounds i8, ptr %4, i64 24
  %11 = getelementptr inbounds i8, ptr %9, i64 24
  call void (i32, ptr, ...) @zend_error_noreturn(i32 noundef 1, ptr noundef nonnull @.str.21, ptr noundef nonnull %10, ptr noundef nonnull %11) #16
  unreachable
}